; Function Attrs: nounwind sspstrong uwtable
define internal i64 @nucomp_denominator(i64 noundef %0) #0 {
  %2 = inttoptr i64 %0 to ptr
  %3 = getelementptr inbounds nuw i8, ptr %2, i64 16
  %4 = load i64, ptr %3, align 8, !tbaa !15
  %5 = icmp eq i64 %4, 0
  %6 = and i64 %4, 7
  %7 = icmp ne i64 %6, 0
  %8 = or i1 %5, %7
  br i1 %8, label %rbimpl_RB_TYPE_P_fastpath.exit.thread.i, label %rbimpl_RB_TYPE_P_fastpath.exit.i

rbimpl_RB_TYPE_P_fastpath.exit.i:                 ; preds = %1
  %9 = inttoptr i64 %4 to ptr
  %10 = load i64, ptr %9, align 8, !tbaa !19
  %11 = and i64 %10, 31
  switch i64 %11, label %f_denominator.exit [
    i64 15, label %12
    i64 4, label %RB_FLOAT_TYPE_P.exit.thread.i
  ]

12:                                               ; preds = %rbimpl_RB_TYPE_P_fastpath.exit.i
  %13 = getelementptr inbounds nuw i8, ptr %9, i64 24
  %14 = load i64, ptr %13, align 8, !tbaa !30
  br label %f_denominator.exit

rbimpl_RB_TYPE_P_fastpath.exit.thread.i:          ; preds = %1
  %15 = and i64 %4, 3
  %16 = icmp eq i64 %15, 2
  br i1 %16, label %RB_FLOAT_TYPE_P.exit.thread.i, label %f_denominator.exit

RB_FLOAT_TYPE_P.exit.thread.i:                    ; preds = %rbimpl_RB_TYPE_P_fastpath.exit.thread.i, %rbimpl_RB_TYPE_P_fastpath.exit.i
  %17 = tail call i64 @rb_float_denominator(i64 noundef %4) #17
  br label %f_denominator.exit

f_denominator.exit:                               ; preds = %rbimpl_RB_TYPE_P_fastpath.exit.i, %12, %rbimpl_RB_TYPE_P_fastpath.exit.thread.i, %RB_FLOAT_TYPE_P.exit.thread.i
  %.0.i = phi i64 [ %14, %12 ], [ %17, %RB_FLOAT_TYPE_P.exit.thread.i ], [ 3, %rbimpl_RB_TYPE_P_fastpath.exit.thread.i ], [ 3, %rbimpl_RB_TYPE_P_fastpath.exit.i ]
  %18 = getelementptr inbounds nuw i8, ptr %2, i64 24
  %19 = load i64, ptr %18, align 8, !tbaa !18
  %20 = icmp eq i64 %19, 0
  %21 = and i64 %19, 7
  %22 = icmp ne i64 %21, 0
  %23 = or i1 %20, %22
  br i1 %23, label %rbimpl_RB_TYPE_P_fastpath.exit.thread.i5, label %rbimpl_RB_TYPE_P_fastpath.exit.i2

rbimpl_RB_TYPE_P_fastpath.exit.i2:                ; preds = %f_denominator.exit
  %24 = inttoptr i64 %19 to ptr
  %25 = load i64, ptr %24, align 8, !tbaa !19
  %26 = and i64 %25, 31
  switch i64 %26, label %f_denominator.exit6 [
    i64 15, label %27
    i64 4, label %RB_FLOAT_TYPE_P.exit.thread.i3
  ]

27:                                               ; preds = %rbimpl_RB_TYPE_P_fastpath.exit.i2
  %28 = getelementptr inbounds nuw i8, ptr %24, i64 24
  %29 = load i64, ptr %28, align 8, !tbaa !30
  br label %f_denominator.exit6

rbimpl_RB_TYPE_P_fastpath.exit.thread.i5:         ; preds = %f_denominator.exit
  %30 = and i64 %19, 3
  %31 = icmp eq i64 %30, 2
  br i1 %31, label %RB_FLOAT_TYPE_P.exit.thread.i3, label %f_denominator.exit6

RB_FLOAT_TYPE_P.exit.thread.i3:                   ; preds = %rbimpl_RB_TYPE_P_fastpath.exit.thread.i5, %rbimpl_RB_TYPE_P_fastpath.exit.i2
  %32 = tail call i64 @rb_float_denominator(i64 noundef %19) #17
  br label %f_denominator.exit6

f_denominator.exit6:                              ; preds = %rbimpl_RB_TYPE_P_fastpath.exit.i2, %27, %rbimpl_RB_TYPE_P_fastpath.exit.thread.i5, %RB_FLOAT_TYPE_P.exit.thread.i3
  %.0.i4 = phi i64 [ %29, %27 ], [ %32, %RB_FLOAT_TYPE_P.exit.thread.i3 ], [ 3, %rbimpl_RB_TYPE_P_fastpath.exit.thread.i5 ], [ 3, %rbimpl_RB_TYPE_P_fastpath.exit.i2 ]
  %33 = tail call i64 @rb_lcm(i64 noundef %.0.i, i64 noundef %.0.i4) #17
  ret i64 %33
}